; Function Attrs: mustprogress uwtable
define hidden void @_ZNK16bound_propagator7displayERSo(ptr noundef nonnull align 8 dereferenceable(280) %this, ptr noundef nonnull align 8 dereferenceable(8) %out) local_unnamed_addr #3 align 2 {
entry:
  %m_dead.i = getelementptr inbounds i8, ptr %this, i64 96
  %0 = load ptr, ptr %m_dead.i, align 8
  %cmp.i.i = icmp eq ptr %0, null
  br i1 %cmp.i.i, label %_ZNK16bound_propagator14display_boundsERSobb.exit, label %_ZNK6vectorIcLb0EjE4sizeEv.exit.i

_ZNK6vectorIcLb0EjE4sizeEv.exit.i:                ; preds = %entry
  %arrayidx.i.i = getelementptr inbounds i8, ptr %0, i64 -4
  %1 = load i32, ptr %arrayidx.i.i, align 4
  %cmp6.not.i = icmp eq i32 %1, 0
  br i1 %cmp6.not.i, label %_ZNK16bound_propagator14display_boundsERSobb.exit, label %for.body.preheader.i

for.body.preheader.i:                             ; preds = %_ZNK6vectorIcLb0EjE4sizeEv.exit.i
  %wide.trip.count.i = zext i32 %1 to i64
  br label %for.body.i

for.body.i:                                       ; preds = %for.inc.i, %for.body.preheader.i
  %indvars.iv.i = phi i64 [ 0, %for.body.preheader.i ], [ %indvars.iv.next.i, %for.inc.i ]
  %2 = load ptr, ptr %m_dead.i, align 8
  %arrayidx.i.i.i = getelementptr inbounds i8, ptr %2, i64 %indvars.iv.i
  %3 = load i8, ptr %arrayidx.i.i.i, align 1
  %cmp.i5.not.i = icmp eq i8 %3, 0
  br i1 %cmp.i5.not.i, label %if.then.i, label %for.inc.i

if.then.i:                                        ; preds = %for.body.i
  %4 = trunc i64 %indvars.iv.i to i32
  tail call void @_ZNK16bound_propagator18display_var_boundsERSojbb(ptr noundef nonnull align 8 dereferenceable(280) %this, ptr noundef nonnull align 8 dereferenceable(8) %out, i32 noundef %4, i1 noundef zeroext true, i1 noundef zeroext true)
  %call5.i = tail call noundef nonnull align 8 dereferenceable(8) ptr @_ZStlsISt11char_traitsIcEERSt13basic_ostreamIcT_ES5_PKc(ptr noundef nonnull align 8 dereferenceable(8) %out, ptr noundef nonnull @.str.11)
  br label %for.inc.i

for.inc.i:                                        ; preds = %if.then.i, %for.body.i
  %indvars.iv.next.i = add nuw nsw i64 %indvars.iv.i, 1
  %exitcond.not.i = icmp eq i64 %indvars.iv.next.i, %wide.trip.count.i
  br i1 %exitcond.not.i, label %_ZNK16bound_propagator14display_boundsERSobb.exit, label %for.body.i, !llvm.loop !25

_ZNK16bound_propagator14display_boundsERSobb.exit: ; preds = %for.inc.i, %entry, %_ZNK6vectorIcLb0EjE4sizeEv.exit.i
  %m_constraints.i = getelementptr inbounds i8, ptr %this, i64 80
  %5 = load ptr, ptr %m_constraints.i, align 8
  %cmp.i.i.i = icmp eq ptr %5, null
  br i1 %cmp.i.i.i, label %_ZNK16bound_propagator19display_constraintsERSo.exit, label %_ZNK6vectorIN16bound_propagator10constraintELb0EjE3endEv.exit.i

_ZNK6vectorIN16bound_propagator10constraintELb0EjE3endEv.exit.i: ; preds = %_ZNK16bound_propagator14display_boundsERSobb.exit
  %arrayidx.i.i.i2 = getelementptr inbounds i8, ptr %5, i64 -4
  %6 = load i32, ptr %arrayidx.i.i.i2, align 4
  %7 = zext i32 %6 to i64
  %add.ptr.i.i = getelementptr inbounds %"class.bound_propagator::constraint", ptr %5, i64 %7
  %cmp.not6.i = icmp eq i32 %6, 0
  br i1 %cmp.not6.i, label %_ZNK16bound_propagator19display_constraintsERSo.exit, label %for.body.lr.ph.i

for.body.lr.ph.i:                                 ; preds = %_ZNK6vectorIN16bound_propagator10constraintELb0EjE3endEv.exit.i
  %m_eq_manager.i = getelementptr inbounds i8, ptr %this, i64 16
  br label %for.body.i3

for.body.i3:                                      ; preds = %for.inc.i4, %for.body.lr.ph.i
  %__begin1.07.i = phi ptr [ %5, %for.body.lr.ph.i ], [ %incdec.ptr.i, %for.inc.i4 ]
  %bf.load.i = load i8, ptr %__begin1.07.i, align 8
  %bf.clear.i = and i8 %bf.load.i, 3
  %cmp3.i = icmp eq i8 %bf.clear.i, 0
  br i1 %cmp3.i, label %if.then.i5, label %for.inc.i4

if.then.i5:                                       ; preds = %for.body.i3
  %8 = getelementptr inbounds i8, ptr %__begin1.07.i, i64 16
  %9 = load ptr, ptr %8, align 8
  tail call void @_ZNK23linear_equation_manager7displayERSoRK15linear_equation(ptr noundef nonnull align 8 dereferenceable(64) %m_eq_manager.i, ptr noundef nonnull align 8 dereferenceable(8) %out, ptr noundef nonnull align 8 dereferenceable(32) %9)
  %call4.i = tail call noundef nonnull align 8 dereferenceable(8) ptr @_ZStlsISt11char_traitsIcEERSt13basic_ostreamIcT_ES5_PKc(ptr noundef nonnull align 8 dereferenceable(8) %out, ptr noundef nonnull @.str.11)
  br label %for.inc.i4

for.inc.i4:                                       ; preds = %if.then.i5, %for.body.i3
  %incdec.ptr.i = getelementptr inbounds i8, ptr %__begin1.07.i, i64 24
  %cmp.not.i = icmp eq ptr %incdec.ptr.i, %add.ptr.i.i
  br i1 %cmp.not.i, label %_ZNK16bound_propagator19display_constraintsERSo.exit, label %for.body.i3

_ZNK16bound_propagator19display_constraintsERSo.exit: ; preds = %for.inc.i4, %_ZNK16bound_propagator14display_boundsERSobb.exit, %_ZNK6vectorIN16bound_propagator10constraintELb0EjE3endEv.exit.i
  ret void
}